#include <math.h>
#include <stdio.h>
#include <stdlib.h>
#include <string.h>
#include <iostream>
using namespace std;


int main()
{
	int n,k,i,j;
	cin>>n>>k;//?????
	for(i=1;;i++)//??i??????????????
	{
		int sum=i*(n-1);//????????sum?
		int counter=0;//?counter?????????
		for(j=1;j<=n;j++)
		{
			if((sum%(n-1))!=0)break;//?????????????????????i????????
			else 
			{
				sum=sum*n/(n-1)+k;//???????????????
				counter++;//????????
			}
			
		}
		if(counter==n)//??n?????????
		{
			cout<<sum<<endl;
			break;
		}
	}
	return 0;
}